; Function Attrs: inlinehint mustprogress uwtable
define internal fastcc void @_ZZN12_GLOBAL__N_112ice40_dsp_pm7block_1EiENKUlRKN5Yosys5RTLIL7SigSpecEE_clES5_(ptr dead_on_unwind noalias nonnull writable align 8 %0, ptr noundef nonnull align 8 dereferenceable(56) %1) unnamed_addr #14 align 2 {
  %3 = load i32, ptr %1, align 8, !tbaa !157
  %4 = icmp sgt i32 %3, 1
  br i1 %4, label %.lr.ph, label %_ZNK5Yosys5RTLIL6SigBitneERKS1_.exit.thread

.lr.ph:                                           ; preds = %2
  %5 = getelementptr inbounds nuw i8, ptr %1, i64 8
  %6 = getelementptr inbounds nuw i8, ptr %1, i64 16
  %7 = getelementptr inbounds nuw i8, ptr %1, i64 32
  %8 = getelementptr inbounds nuw i8, ptr %1, i64 40
  %9 = zext nneg i32 %3 to i64
  br label %10

10:                                               ; preds = %.lr.ph, %.backedge
  %indvars.iv = phi i64 [ %9, %.lr.ph ], [ %indvars.iv.next, %.backedge ]
  %indvars.iv.next = add nsw i64 %indvars.iv, -1
  %11 = load ptr, ptr %5, align 8, !tbaa !377
  %12 = load ptr, ptr %6, align 8, !tbaa !377
  %13 = icmp eq ptr %11, %12
  br i1 %13, label %_ZNK5Yosys5RTLIL7SigSpec13inline_unpackEv.exit.i, label %14

14:                                               ; preds = %10
  tail call void @_ZNK5Yosys5RTLIL7SigSpec6unpackEv(ptr noundef nonnull align 8 dereferenceable(56) %1)
  br label %_ZNK5Yosys5RTLIL7SigSpec13inline_unpackEv.exit.i

_ZNK5Yosys5RTLIL7SigSpec13inline_unpackEv.exit.i: ; preds = %14, %10
  %15 = load ptr, ptr %8, align 8, !tbaa !337
  %16 = load ptr, ptr %7, align 8, !tbaa !196
  %17 = ptrtoint ptr %15 to i64
  %18 = ptrtoint ptr %16 to i64
  %19 = sub i64 %17, %18
  %20 = ashr exact i64 %19, 4
  %.not.i.i.i = icmp ugt i64 %20, %indvars.iv.next
  br i1 %.not.i.i.i, label %_ZNK5Yosys5RTLIL7SigSpecixEi.exit, label %21

21:                                               ; preds = %_ZNK5Yosys5RTLIL7SigSpec13inline_unpackEv.exit.i
  tail call void (ptr, ...) @_ZSt24__throw_out_of_range_fmtPKcz(ptr noundef nonnull @.str.35, i64 noundef %indvars.iv.next, i64 noundef %20) #32
  unreachable

_ZNK5Yosys5RTLIL7SigSpecixEi.exit:                ; preds = %_ZNK5Yosys5RTLIL7SigSpec13inline_unpackEv.exit.i
  %22 = getelementptr inbounds nuw %"struct.Yosys::RTLIL::SigBit", ptr %16, i64 %indvars.iv.next
  %23 = add nsw i64 %indvars.iv, -2
  %24 = load ptr, ptr %5, align 8, !tbaa !377
  %25 = load ptr, ptr %6, align 8, !tbaa !377
  %26 = icmp eq ptr %24, %25
  br i1 %26, label %_ZNK5Yosys5RTLIL7SigSpec13inline_unpackEv.exit.i9, label %27

27:                                               ; preds = %_ZNK5Yosys5RTLIL7SigSpecixEi.exit
  tail call void @_ZNK5Yosys5RTLIL7SigSpec6unpackEv(ptr noundef nonnull align 8 dereferenceable(56) %1)
  %.pre = load ptr, ptr %8, align 8, !tbaa !337
  %.pre26 = load ptr, ptr %7, align 8, !tbaa !196
  %.pre27 = ptrtoint ptr %.pre to i64
  %.pre28 = ptrtoint ptr %.pre26 to i64
  %.pre30 = sub i64 %.pre27, %.pre28
  %.pre32 = ashr exact i64 %.pre30, 4
  br label %_ZNK5Yosys5RTLIL7SigSpec13inline_unpackEv.exit.i9

_ZNK5Yosys5RTLIL7SigSpec13inline_unpackEv.exit.i9: ; preds = %27, %_ZNK5Yosys5RTLIL7SigSpecixEi.exit
  %.pre-phi33 = phi i64 [ %.pre32, %27 ], [ %20, %_ZNK5Yosys5RTLIL7SigSpecixEi.exit ]
  %28 = phi ptr [ %.pre26, %27 ], [ %16, %_ZNK5Yosys5RTLIL7SigSpecixEi.exit ]
  %.not.i.i.i10 = icmp ugt i64 %.pre-phi33, %23
  br i1 %.not.i.i.i10, label %_ZNK5Yosys5RTLIL7SigSpecixEi.exit11, label %29

29:                                               ; preds = %_ZNK5Yosys5RTLIL7SigSpec13inline_unpackEv.exit.i9
  tail call void (ptr, ...) @_ZSt24__throw_out_of_range_fmtPKcz(ptr noundef nonnull @.str.35, i64 noundef %23, i64 noundef %.pre-phi33) #32
  unreachable

_ZNK5Yosys5RTLIL7SigSpecixEi.exit11:              ; preds = %_ZNK5Yosys5RTLIL7SigSpec13inline_unpackEv.exit.i9
  %30 = getelementptr inbounds nuw %"struct.Yosys::RTLIL::SigBit", ptr %28, i64 %23
  %31 = load ptr, ptr %22, align 8, !tbaa !159
  %32 = load ptr, ptr %30, align 8, !tbaa !159
  %.not.i = icmp eq ptr %31, %32
  br i1 %.not.i, label %33, label %_ZNK5Yosys5RTLIL6SigBitneERKS1_.exit.thread.loopexit.split.loop.exit

33:                                               ; preds = %_ZNK5Yosys5RTLIL7SigSpecixEi.exit11
  %.not4.i = icmp eq ptr %31, null
  %34 = getelementptr inbounds nuw i8, ptr %22, i64 8
  %35 = getelementptr inbounds nuw i8, ptr %30, i64 8
  br i1 %.not4.i, label %_ZNK5Yosys5RTLIL6SigBitneERKS1_.exit, label %36

36:                                               ; preds = %33
  %37 = load i32, ptr %34, align 8, !tbaa !21
  %38 = load i32, ptr %35, align 8, !tbaa !21
  %.not = icmp eq i32 %37, %38
  br i1 %.not, label %.backedge, label %_ZNK5Yosys5RTLIL6SigBitneERKS1_.exit.thread.loopexit.split.loop.exit41

_ZNK5Yosys5RTLIL6SigBitneERKS1_.exit:             ; preds = %33
  %39 = load i8, ptr %34, align 8, !tbaa !21
  %40 = load i8, ptr %35, align 8, !tbaa !21
  %.not1 = icmp eq i8 %39, %40
  br i1 %.not1, label %.backedge, label %_ZNK5Yosys5RTLIL6SigBitneERKS1_.exit.thread.loopexit.split.loop.exit43

.backedge:                                        ; preds = %_ZNK5Yosys5RTLIL6SigBitneERKS1_.exit, %36
  %41 = icmp samesign ugt i64 %indvars.iv, 2
  br i1 %41, label %10, label %_ZNK5Yosys5RTLIL6SigBitneERKS1_.exit.thread, !llvm.loop !1029

_ZNK5Yosys5RTLIL6SigBitneERKS1_.exit.thread.loopexit.split.loop.exit: ; preds = %_ZNK5Yosys5RTLIL7SigSpecixEi.exit11
  %42 = trunc nuw nsw i64 %indvars.iv to i32
  br label %_ZNK5Yosys5RTLIL6SigBitneERKS1_.exit.thread

_ZNK5Yosys5RTLIL6SigBitneERKS1_.exit.thread.loopexit.split.loop.exit41: ; preds = %36
  %43 = trunc nuw nsw i64 %indvars.iv to i32
  br label %_ZNK5Yosys5RTLIL6SigBitneERKS1_.exit.thread

_ZNK5Yosys5RTLIL6SigBitneERKS1_.exit.thread.loopexit.split.loop.exit43: ; preds = %_ZNK5Yosys5RTLIL6SigBitneERKS1_.exit
  %44 = trunc nuw nsw i64 %indvars.iv to i32
  br label %_ZNK5Yosys5RTLIL6SigBitneERKS1_.exit.thread

_ZNK5Yosys5RTLIL6SigBitneERKS1_.exit.thread:      ; preds = %.backedge, %_ZNK5Yosys5RTLIL6SigBitneERKS1_.exit.thread.loopexit.split.loop.exit, %_ZNK5Yosys5RTLIL6SigBitneERKS1_.exit.thread.loopexit.split.loop.exit41, %_ZNK5Yosys5RTLIL6SigBitneERKS1_.exit.thread.loopexit.split.loop.exit43, %2
  %.0.in.lcssa = phi i32 [ %3, %2 ], [ %42, %_ZNK5Yosys5RTLIL6SigBitneERKS1_.exit.thread.loopexit.split.loop.exit ], [ %43, %_ZNK5Yosys5RTLIL6SigBitneERKS1_.exit.thread.loopexit.split.loop.exit41 ], [ %44, %_ZNK5Yosys5RTLIL6SigBitneERKS1_.exit.thread.loopexit.split.loop.exit43 ], [ 1, %.backedge ]
  tail call void @_ZNK5Yosys5RTLIL7SigSpec7extractEii(ptr dead_on_unwind nonnull writable sret(%"struct.Yosys::RTLIL::SigSpec") align 8 %0, ptr noundef nonnull align 8 dereferenceable(56) %1, i32 noundef 0, i32 noundef %.0.in.lcssa)
  ret void
}